target datalayout = "e-m:e-p270:32:32-p271:32:32-p272:64:64-i64:64-i128:128-f80:128-n8:16:32:64-S128"
target triple = "x86_64-pc-linux-gnu"

%struct.pointf_s = type { double, double }

; Function Attrs: nounwind uwtable
define internal { double, double } @arrow_type_curve(ptr noundef %0, double %1, double %2, double %3, double %4, double noundef %5, double noundef %6, i32 noundef %7) #0 {
  %9 = alloca %struct.pointf_s, align 8
  %10 = alloca %struct.pointf_s, align 8
  %11 = alloca %struct.pointf_s, align 8
  %12 = alloca ptr, align 8
  %13 = alloca double, align 8
  %14 = alloca double, align 8
  %15 = alloca i32, align 4
  %16 = alloca double, align 8
  %17 = alloca %struct.pointf_s, align 8
  %18 = alloca %struct.pointf_s, align 8
  %19 = alloca [4 x %struct.pointf_s], align 16
  %20 = alloca [2 x %struct.pointf_s], align 16
  %21 = alloca %struct.pointf_s, align 8
  %22 = alloca double, align 8
  %23 = alloca double, align 8
  %24 = alloca %struct.pointf_s, align 8
  %25 = alloca %struct.pointf_s, align 8
  %26 = alloca %struct.pointf_s, align 8
  %27 = getelementptr inbounds nuw { double, double }, ptr %10, i32 0, i32 0
  store double %1, ptr %27, align 8
  %28 = getelementptr inbounds nuw { double, double }, ptr %10, i32 0, i32 1
  store double %2, ptr %28, align 8
  %29 = getelementptr inbounds nuw { double, double }, ptr %11, i32 0, i32 0
  store double %3, ptr %29, align 8
  %30 = getelementptr inbounds nuw { double, double }, ptr %11, i32 0, i32 1
  store double %4, ptr %30, align 8
  store ptr %0, ptr %12, align 8, !tbaa !73
  store double %5, ptr %13, align 8, !tbaa !53
  store double %6, ptr %14, align 8, !tbaa !53
  store i32 %7, ptr %15, align 4, !tbaa !10
  call void @llvm.lifetime.start.p0(i64 8, ptr %16) #9
  %31 = load double, ptr %14, align 8, !tbaa !53
  %32 = fcmp ogt double %31, 4.000000e+00
  br i1 %32, label %33, label %37

33:                                               ; preds = %8
  %34 = load double, ptr %14, align 8, !tbaa !53
  %35 = fmul double 5.000000e-01, %34
  %36 = fdiv double %35, 4.000000e+00
  br label %38

37:                                               ; preds = %8
  br label %38

38:                                               ; preds = %37, %33
  %39 = phi double [ %36, %33 ], [ 5.000000e-01, %37 ]
  store double %39, ptr %16, align 8, !tbaa !53
  call void @llvm.lifetime.start.p0(i64 16, ptr %17) #9
  call void @llvm.lifetime.start.p0(i64 16, ptr %18) #9
  call void @llvm.lifetime.start.p0(i64 64, ptr %19) #9
  call void @llvm.lifetime.start.p0(i64 32, ptr %20) #9
  %40 = getelementptr inbounds [2 x %struct.pointf_s], ptr %20, i64 0, i64 0
  call void @llvm.memcpy.p0.p0.i64(ptr align 16 %40, ptr align 8 %10, i64 16, i1 false), !tbaa.struct !56
  %41 = load i32, ptr %15, align 4, !tbaa !10
  %42 = and i32 %41, 32
  %43 = icmp ne i32 %42, 0
  br i1 %43, label %97, label %44

44:                                               ; preds = %38
  %45 = getelementptr inbounds nuw %struct.pointf_s, ptr %11, i32 0, i32 0
  %46 = load double, ptr %45, align 8, !tbaa !57
  %47 = fcmp une double %46, 0.000000e+00
  br i1 %47, label %52, label %48

48:                                               ; preds = %44
  %49 = getelementptr inbounds nuw %struct.pointf_s, ptr %11, i32 0, i32 1
  %50 = load double, ptr %49, align 8, !tbaa !58
  %51 = fcmp une double %50, 0.000000e+00
  br i1 %51, label %52, label %97

52:                                               ; preds = %48, %44
  call void @llvm.lifetime.start.p0(i64 16, ptr %21) #9
  %53 = getelementptr inbounds nuw %struct.pointf_s, ptr %21, i32 0, i32 0
  %54 = getelementptr inbounds nuw %struct.pointf_s, ptr %11, i32 0, i32 0
  %55 = load double, ptr %54, align 8, !tbaa !57
  %56 = fneg double %55
  store double %56, ptr %53, align 8, !tbaa !57
  %57 = getelementptr inbounds nuw %struct.pointf_s, ptr %21, i32 0, i32 1
  %58 = getelementptr inbounds nuw %struct.pointf_s, ptr %11, i32 0, i32 1
  %59 = load double, ptr %58, align 8, !tbaa !58
  %60 = fneg double %59
  store double %60, ptr %57, align 8, !tbaa !58
  call void @llvm.lifetime.start.p0(i64 8, ptr %22) #9
  %61 = getelementptr inbounds nuw %struct.pointf_s, ptr %21, i32 0, i32 0
  %62 = load double, ptr %61, align 8, !tbaa !57
  %63 = getelementptr inbounds nuw %struct.pointf_s, ptr %21, i32 0, i32 0
  %64 = load double, ptr %63, align 8, !tbaa !57
  %65 = getelementptr inbounds nuw %struct.pointf_s, ptr %21, i32 0, i32 1
  %66 = load double, ptr %65, align 8, !tbaa !58
  %67 = call double @hypot(double noundef %64, double noundef %66) #9, !tbaa !10
  %68 = fdiv double %62, %67
  store double %68, ptr %22, align 8, !tbaa !53
  call void @llvm.lifetime.start.p0(i64 8, ptr %23) #9
  %69 = getelementptr inbounds nuw %struct.pointf_s, ptr %21, i32 0, i32 1
  %70 = load double, ptr %69, align 8, !tbaa !58
  %71 = getelementptr inbounds nuw %struct.pointf_s, ptr %21, i32 0, i32 0
  %72 = load double, ptr %71, align 8, !tbaa !57
  %73 = getelementptr inbounds nuw %struct.pointf_s, ptr %21, i32 0, i32 1
  %74 = load double, ptr %73, align 8, !tbaa !58
  %75 = call double @hypot(double noundef %72, double noundef %74) #9, !tbaa !10
  %76 = fdiv double %70, %75
  store double %76, ptr %23, align 8, !tbaa !53
  call void @llvm.lifetime.start.p0(i64 16, ptr %24) #9
  %77 = getelementptr inbounds nuw %struct.pointf_s, ptr %24, i32 0, i32 0
  %78 = load double, ptr %14, align 8, !tbaa !53
  %79 = fdiv double %78, 2.000000e+00
  %80 = load double, ptr %22, align 8, !tbaa !53
  %81 = fmul double %79, %80
  store double %81, ptr %77, align 8, !tbaa !57
  %82 = getelementptr inbounds nuw %struct.pointf_s, ptr %24, i32 0, i32 1
  %83 = load double, ptr %14, align 8, !tbaa !53
  %84 = fdiv double %83, 2.000000e+00
  %85 = load double, ptr %23, align 8, !tbaa !53
  %86 = fmul double %84, %85
  store double %86, ptr %82, align 8, !tbaa !58
  %87 = getelementptr inbounds nuw %struct.pointf_s, ptr %24, i32 0, i32 0
  %88 = load double, ptr %87, align 8, !tbaa !57
  %89 = getelementptr inbounds nuw %struct.pointf_s, ptr %10, i32 0, i32 0
  %90 = load double, ptr %89, align 8, !tbaa !57
  %91 = fsub double %90, %88
  store double %91, ptr %89, align 8, !tbaa !57
  %92 = getelementptr inbounds nuw %struct.pointf_s, ptr %24, i32 0, i32 1
  %93 = load double, ptr %92, align 8, !tbaa !58
  %94 = getelementptr inbounds nuw %struct.pointf_s, ptr %10, i32 0, i32 1
  %95 = load double, ptr %94, align 8, !tbaa !58
  %96 = fsub double %95, %93
  store double %96, ptr %94, align 8, !tbaa !58
  call void @llvm.lifetime.end.p0(i64 16, ptr %24) #9
  call void @llvm.lifetime.end.p0(i64 8, ptr %23) #9
  call void @llvm.lifetime.end.p0(i64 8, ptr %22) #9
  call void @llvm.lifetime.end.p0(i64 16, ptr %21) #9
  br label %97

97:                                               ; preds = %52, %48, %38
  %98 = getelementptr inbounds nuw %struct.pointf_s, ptr %10, i32 0, i32 0
  %99 = load double, ptr %98, align 8, !tbaa !57
  %100 = getelementptr inbounds nuw %struct.pointf_s, ptr %11, i32 0, i32 0
  %101 = load double, ptr %100, align 8, !tbaa !57
  %102 = fadd double %99, %101
  %103 = getelementptr inbounds nuw %struct.pointf_s, ptr %9, i32 0, i32 0
  store double %102, ptr %103, align 8, !tbaa !57
  %104 = getelementptr inbounds nuw %struct.pointf_s, ptr %10, i32 0, i32 1
  %105 = load double, ptr %104, align 8, !tbaa !58
  %106 = getelementptr inbounds nuw %struct.pointf_s, ptr %11, i32 0, i32 1
  %107 = load double, ptr %106, align 8, !tbaa !58
  %108 = fadd double %105, %107
  %109 = getelementptr inbounds nuw %struct.pointf_s, ptr %9, i32 0, i32 1
  store double %108, ptr %109, align 8, !tbaa !58
  %110 = getelementptr inbounds nuw %struct.pointf_s, ptr %11, i32 0, i32 1
  %111 = load double, ptr %110, align 8, !tbaa !58
  %112 = fneg double %111
  %113 = load double, ptr %16, align 8, !tbaa !53
  %114 = fmul double %112, %113
  %115 = getelementptr inbounds nuw %struct.pointf_s, ptr %17, i32 0, i32 0
  store double %114, ptr %115, align 8, !tbaa !57
  %116 = getelementptr inbounds nuw %struct.pointf_s, ptr %11, i32 0, i32 0
  %117 = load double, ptr %116, align 8, !tbaa !57
  %118 = load double, ptr %16, align 8, !tbaa !53
  %119 = fmul double %117, %118
  %120 = getelementptr inbounds nuw %struct.pointf_s, ptr %17, i32 0, i32 1
  store double %119, ptr %120, align 8, !tbaa !58
  %121 = getelementptr inbounds nuw %struct.pointf_s, ptr %17, i32 0, i32 1
  %122 = load double, ptr %121, align 8, !tbaa !58
  %123 = getelementptr inbounds nuw %struct.pointf_s, ptr %18, i32 0, i32 0
  store double %122, ptr %123, align 8, !tbaa !57
  %124 = getelementptr inbounds nuw %struct.pointf_s, ptr %17, i32 0, i32 0
  %125 = load double, ptr %124, align 8, !tbaa !57
  %126 = fneg double %125
  %127 = getelementptr inbounds nuw %struct.pointf_s, ptr %18, i32 0, i32 1
  store double %126, ptr %127, align 8, !tbaa !58
  %128 = getelementptr inbounds [2 x %struct.pointf_s], ptr %20, i64 0, i64 1
  call void @llvm.memcpy.p0.p0.i64(ptr align 16 %128, ptr align 8 %9, i64 16, i1 false), !tbaa.struct !56
  %129 = getelementptr inbounds nuw %struct.pointf_s, ptr %10, i32 0, i32 0
  %130 = load double, ptr %129, align 8, !tbaa !57
  %131 = getelementptr inbounds nuw %struct.pointf_s, ptr %17, i32 0, i32 0
  %132 = load double, ptr %131, align 8, !tbaa !57
  %133 = fadd double %130, %132
  %134 = getelementptr inbounds nuw %struct.pointf_s, ptr %18, i32 0, i32 0
  %135 = load double, ptr %134, align 8, !tbaa !57
  %136 = fadd double %133, %135
  %137 = getelementptr inbounds [4 x %struct.pointf_s], ptr %19, i64 0, i64 0
  %138 = getelementptr inbounds nuw %struct.pointf_s, ptr %137, i32 0, i32 0
  store double %136, ptr %138, align 16, !tbaa !57
  %139 = getelementptr inbounds nuw %struct.pointf_s, ptr %10, i32 0, i32 1
  %140 = load double, ptr %139, align 8, !tbaa !58
  %141 = getelementptr inbounds nuw %struct.pointf_s, ptr %17, i32 0, i32 1
  %142 = load double, ptr %141, align 8, !tbaa !58
  %143 = fadd double %140, %142
  %144 = getelementptr inbounds nuw %struct.pointf_s, ptr %18, i32 0, i32 1
  %145 = load double, ptr %144, align 8, !tbaa !58
  %146 = fadd double %143, %145
  %147 = getelementptr inbounds [4 x %struct.pointf_s], ptr %19, i64 0, i64 0
  %148 = getelementptr inbounds nuw %struct.pointf_s, ptr %147, i32 0, i32 1
  store double %146, ptr %148, align 8, !tbaa !58
  %149 = getelementptr inbounds nuw %struct.pointf_s, ptr %10, i32 0, i32 0
  %150 = load double, ptr %149, align 8, !tbaa !57
  %151 = getelementptr inbounds nuw %struct.pointf_s, ptr %17, i32 0, i32 0
  %152 = load double, ptr %151, align 8, !tbaa !57
  %153 = fsub double %150, %152
  %154 = getelementptr inbounds nuw %struct.pointf_s, ptr %18, i32 0, i32 0
  %155 = load double, ptr %154, align 8, !tbaa !57
  %156 = fadd double %153, %155
  %157 = getelementptr inbounds [4 x %struct.pointf_s], ptr %19, i64 0, i64 3
  %158 = getelementptr inbounds nuw %struct.pointf_s, ptr %157, i32 0, i32 0
  store double %156, ptr %158, align 16, !tbaa !57
  %159 = getelementptr inbounds nuw %struct.pointf_s, ptr %10, i32 0, i32 1
  %160 = load double, ptr %159, align 8, !tbaa !58
  %161 = getelementptr inbounds nuw %struct.pointf_s, ptr %17, i32 0, i32 1
  %162 = load double, ptr %161, align 8, !tbaa !58
  %163 = fsub double %160, %162
  %164 = getelementptr inbounds nuw %struct.pointf_s, ptr %18, i32 0, i32 1
  %165 = load double, ptr %164, align 8, !tbaa !58
  %166 = fadd double %163, %165
  %167 = getelementptr inbounds [4 x %struct.pointf_s], ptr %19, i64 0, i64 3
  %168 = getelementptr inbounds nuw %struct.pointf_s, ptr %167, i32 0, i32 1
  store double %166, ptr %168, align 8, !tbaa !58
  %169 = load i32, ptr %15, align 4, !tbaa !10
  %170 = and i32 %169, 32
  %171 = icmp ne i32 %170, 0
  br i1 %171, label %172, label %223

172:                                              ; preds = %97
  %173 = getelementptr inbounds nuw %struct.pointf_s, ptr %10, i32 0, i32 0
  %174 = load double, ptr %173, align 8, !tbaa !57
  %175 = getelementptr inbounds nuw %struct.pointf_s, ptr %17, i32 0, i32 0
  %176 = load double, ptr %175, align 8, !tbaa !57
  %177 = call double @llvm.fmuladd.f64(double 0x3FEE666666666666, double %176, double %174)
  %178 = getelementptr inbounds nuw %struct.pointf_s, ptr %18, i32 0, i32 0
  %179 = load double, ptr %178, align 8, !tbaa !57
  %180 = fadd double %177, %179
  %181 = getelementptr inbounds nuw %struct.pointf_s, ptr %18, i32 0, i32 0
  %182 = load double, ptr %181, align 8, !tbaa !57
  %183 = fmul double %182, 4.000000e+00
  %184 = fdiv double %183, 3.000000e+00
  %185 = fadd double %180, %184
  %186 = getelementptr inbounds [4 x %struct.pointf_s], ptr %19, i64 0, i64 1
  %187 = getelementptr inbounds nuw %struct.pointf_s, ptr %186, i32 0, i32 0
  store double %185, ptr %187, align 16, !tbaa !57
  %188 = getelementptr inbounds [4 x %struct.pointf_s], ptr %19, i64 0, i64 0
  %189 = getelementptr inbounds nuw %struct.pointf_s, ptr %188, i32 0, i32 1
  %190 = load double, ptr %189, align 8, !tbaa !58
  %191 = getelementptr inbounds nuw %struct.pointf_s, ptr %18, i32 0, i32 1
  %192 = load double, ptr %191, align 8, !tbaa !58
  %193 = fmul double %192, 4.000000e+00
  %194 = fdiv double %193, 3.000000e+00
  %195 = fadd double %190, %194
  %196 = getelementptr inbounds [4 x %struct.pointf_s], ptr %19, i64 0, i64 1
  %197 = getelementptr inbounds nuw %struct.pointf_s, ptr %196, i32 0, i32 1
  store double %195, ptr %197, align 8, !tbaa !58
  %198 = getelementptr inbounds nuw %struct.pointf_s, ptr %10, i32 0, i32 0
  %199 = load double, ptr %198, align 8, !tbaa !57
  %200 = getelementptr inbounds nuw %struct.pointf_s, ptr %17, i32 0, i32 0
  %201 = load double, ptr %200, align 8, !tbaa !57
  %202 = call double @llvm.fmuladd.f64(double 0xBFEE666666666666, double %201, double %199)
  %203 = getelementptr inbounds nuw %struct.pointf_s, ptr %18, i32 0, i32 0
  %204 = load double, ptr %203, align 8, !tbaa !57
  %205 = fadd double %202, %204
  %206 = getelementptr inbounds nuw %struct.pointf_s, ptr %18, i32 0, i32 0
  %207 = load double, ptr %206, align 8, !tbaa !57
  %208 = fmul double %207, 4.000000e+00
  %209 = fdiv double %208, 3.000000e+00
  %210 = fadd double %205, %209
  %211 = getelementptr inbounds [4 x %struct.pointf_s], ptr %19, i64 0, i64 2
  %212 = getelementptr inbounds nuw %struct.pointf_s, ptr %211, i32 0, i32 0
  store double %210, ptr %212, align 16, !tbaa !57
  %213 = getelementptr inbounds [4 x %struct.pointf_s], ptr %19, i64 0, i64 3
  %214 = getelementptr inbounds nuw %struct.pointf_s, ptr %213, i32 0, i32 1
  %215 = load double, ptr %214, align 8, !tbaa !58
  %216 = getelementptr inbounds nuw %struct.pointf_s, ptr %18, i32 0, i32 1
  %217 = load double, ptr %216, align 8, !tbaa !58
  %218 = fmul double %217, 4.000000e+00
  %219 = fdiv double %218, 3.000000e+00
  %220 = fadd double %215, %219
  %221 = getelementptr inbounds [4 x %struct.pointf_s], ptr %19, i64 0, i64 2
  %222 = getelementptr inbounds nuw %struct.pointf_s, ptr %221, i32 0, i32 1
  store double %220, ptr %222, align 8, !tbaa !58
  br label %274

223:                                              ; preds = %97
  %224 = getelementptr inbounds nuw %struct.pointf_s, ptr %10, i32 0, i32 0
  %225 = load double, ptr %224, align 8, !tbaa !57
  %226 = getelementptr inbounds nuw %struct.pointf_s, ptr %17, i32 0, i32 0
  %227 = load double, ptr %226, align 8, !tbaa !57
  %228 = call double @llvm.fmuladd.f64(double 0x3FEE666666666666, double %227, double %225)
  %229 = getelementptr inbounds nuw %struct.pointf_s, ptr %18, i32 0, i32 0
  %230 = load double, ptr %229, align 8, !tbaa !57
  %231 = fadd double %228, %230
  %232 = getelementptr inbounds nuw %struct.pointf_s, ptr %18, i32 0, i32 0
  %233 = load double, ptr %232, align 8, !tbaa !57
  %234 = fmul double %233, 4.000000e+00
  %235 = fdiv double %234, 3.000000e+00
  %236 = fsub double %231, %235
  %237 = getelementptr inbounds [4 x %struct.pointf_s], ptr %19, i64 0, i64 1
  %238 = getelementptr inbounds nuw %struct.pointf_s, ptr %237, i32 0, i32 0
  store double %236, ptr %238, align 16, !tbaa !57
  %239 = getelementptr inbounds [4 x %struct.pointf_s], ptr %19, i64 0, i64 0
  %240 = getelementptr inbounds nuw %struct.pointf_s, ptr %239, i32 0, i32 1
  %241 = load double, ptr %240, align 8, !tbaa !58
  %242 = getelementptr inbounds nuw %struct.pointf_s, ptr %18, i32 0, i32 1
  %243 = load double, ptr %242, align 8, !tbaa !58
  %244 = fmul double %243, 4.000000e+00
  %245 = fdiv double %244, 3.000000e+00
  %246 = fsub double %241, %245
  %247 = getelementptr inbounds [4 x %struct.pointf_s], ptr %19, i64 0, i64 1
  %248 = getelementptr inbounds nuw %struct.pointf_s, ptr %247, i32 0, i32 1
  store double %246, ptr %248, align 8, !tbaa !58
  %249 = getelementptr inbounds nuw %struct.pointf_s, ptr %10, i32 0, i32 0
  %250 = load double, ptr %249, align 8, !tbaa !57
  %251 = getelementptr inbounds nuw %struct.pointf_s, ptr %17, i32 0, i32 0
  %252 = load double, ptr %251, align 8, !tbaa !57
  %253 = call double @llvm.fmuladd.f64(double 0xBFEE666666666666, double %252, double %250)
  %254 = getelementptr inbounds nuw %struct.pointf_s, ptr %18, i32 0, i32 0
  %255 = load double, ptr %254, align 8, !tbaa !57
  %256 = fadd double %253, %255
  %257 = getelementptr inbounds nuw %struct.pointf_s, ptr %18, i32 0, i32 0
  %258 = load double, ptr %257, align 8, !tbaa !57
  %259 = fmul double %258, 4.000000e+00
  %260 = fdiv double %259, 3.000000e+00
  %261 = fsub double %256, %260
  %262 = getelementptr inbounds [4 x %struct.pointf_s], ptr %19, i64 0, i64 2
  %263 = getelementptr inbounds nuw %struct.pointf_s, ptr %262, i32 0, i32 0
  store double %261, ptr %263, align 16, !tbaa !57
  %264 = getelementptr inbounds [4 x %struct.pointf_s], ptr %19, i64 0, i64 3
  %265 = getelementptr inbounds nuw %struct.pointf_s, ptr %264, i32 0, i32 1
  %266 = load double, ptr %265, align 8, !tbaa !58
  %267 = getelementptr inbounds nuw %struct.pointf_s, ptr %18, i32 0, i32 1
  %268 = load double, ptr %267, align 8, !tbaa !58
  %269 = fmul double %268, 4.000000e+00
  %270 = fdiv double %269, 3.000000e+00
  %271 = fsub double %266, %270
  %272 = getelementptr inbounds [4 x %struct.pointf_s], ptr %19, i64 0, i64 2
  %273 = getelementptr inbounds nuw %struct.pointf_s, ptr %272, i32 0, i32 1
  store double %271, ptr %273, align 8, !tbaa !58
  br label %274

274:                                              ; preds = %223, %172
  %275 = load ptr, ptr %12, align 8, !tbaa !73
  %276 = getelementptr inbounds [2 x %struct.pointf_s], ptr %20, i64 0, i64 0
  call void @gvrender_polyline(ptr noundef %275, ptr noundef %276, i64 noundef 2)
  %277 = load i32, ptr %15, align 4, !tbaa !10
  %278 = and i32 %277, 64
  %279 = icmp ne i32 %278, 0
  br i1 %279, label %280, label %288

280:                                              ; preds = %274
  %281 = getelementptr inbounds [4 x %struct.pointf_s], ptr %19, i64 0, i64 0
  %282 = getelementptr inbounds [4 x %struct.pointf_s], ptr %19, i64 0, i64 0
  %283 = call { double, double } @Bezier(ptr noundef %281, double noundef 5.000000e-01, ptr noundef null, ptr noundef %282)
  %284 = getelementptr inbounds nuw { double, double }, ptr %25, i32 0, i32 0
  %285 = extractvalue { double, double } %283, 0
  store double %285, ptr %284, align 8
  %286 = getelementptr inbounds nuw { double, double }, ptr %25, i32 0, i32 1
  %287 = extractvalue { double, double } %283, 1
  store double %287, ptr %286, align 8
  br label %301

288:                                              ; preds = %274
  %289 = load i32, ptr %15, align 4, !tbaa !10
  %290 = and i32 %289, 128
  %291 = icmp ne i32 %290, 0
  br i1 %291, label %292, label %300

292:                                              ; preds = %288
  %293 = getelementptr inbounds [4 x %struct.pointf_s], ptr %19, i64 0, i64 0
  %294 = getelementptr inbounds [4 x %struct.pointf_s], ptr %19, i64 0, i64 0
  %295 = call { double, double } @Bezier(ptr noundef %293, double noundef 5.000000e-01, ptr noundef %294, ptr noundef null)
  %296 = getelementptr inbounds nuw { double, double }, ptr %26, i32 0, i32 0
  %297 = extractvalue { double, double } %295, 0
  store double %297, ptr %296, align 8
  %298 = getelementptr inbounds nuw { double, double }, ptr %26, i32 0, i32 1
  %299 = extractvalue { double, double } %295, 1
  store double %299, ptr %298, align 8
  br label %300

300:                                              ; preds = %292, %288
  br label %301

301:                                              ; preds = %300, %280
  %302 = load ptr, ptr %12, align 8, !tbaa !73
  %303 = getelementptr inbounds [4 x %struct.pointf_s], ptr %19, i64 0, i64 0
  call void @gvrender_beziercurve(ptr noundef %302, ptr noundef %303, i64 noundef 4, i32 noundef 0)
  call void @llvm.lifetime.end.p0(i64 32, ptr %20) #9
  call void @llvm.lifetime.end.p0(i64 64, ptr %19) #9
  call void @llvm.lifetime.end.p0(i64 16, ptr %18) #9
  call void @llvm.lifetime.end.p0(i64 16, ptr %17) #9
  call void @llvm.lifetime.end.p0(i64 8, ptr %16) #9
  %304 = load { double, double }, ptr %9, align 8
  ret { double, double } %304
}