; Function Attrs: nounwind uwtable
define internal { double, double } @arrow_type_curve(ptr noundef %0, double %1, double %2, double %3, double %4, double %5, double noundef %6, i32 noundef %7) #0 {
  %9 = alloca [4 x %struct.pointf_s], align 16
  %10 = alloca [2 x %struct.pointf_s], align 16
  %11 = fcmp ogt double %6, 4.000000e+00
  %12 = fmul double %6, 5.000000e-01
  %13 = fmul double %12, 2.500000e-01
  %14 = select i1 %11, double %13, double 5.000000e-01
  call void @llvm.lifetime.start.p0(i64 64, ptr nonnull %9) #12
  call void @llvm.lifetime.start.p0(i64 32, ptr nonnull %10) #12
  store double %1, ptr %10, align 16, !tbaa !55
  %.sroa.11.0..sroa_idx = getelementptr inbounds nuw i8, ptr %10, i64 8
  store double %2, ptr %.sroa.11.0..sroa_idx, align 8, !tbaa !55
  %15 = and i32 %7, 32
  %.not = icmp eq i32 %15, 0
  br i1 %.not, label %16, label %30

16:                                               ; preds = %8
  %17 = fcmp une double %3, 0.000000e+00
  %18 = fcmp une double %4, 0.000000e+00
  %or.cond = select i1 %17, i1 true, i1 %18
  br i1 %or.cond, label %19, label %30

19:                                               ; preds = %16
  %20 = fneg double %3
  %21 = fneg double %4
  %22 = tail call double @hypot(double noundef %20, double noundef %21) #12, !tbaa !3
  %23 = fdiv double %20, %22
  %24 = tail call double @hypot(double noundef %20, double noundef %21) #12, !tbaa !3
  %25 = fdiv double %21, %24
  %26 = fmul double %12, %23
  %27 = fmul double %12, %25
  %28 = fsub double %1, %26
  %29 = fsub double %2, %27
  br label %30

30:                                               ; preds = %16, %19, %8
  %.sroa.054.0 = phi double [ %1, %8 ], [ %28, %19 ], [ %1, %16 ]
  %.sroa.11.0 = phi double [ %2, %8 ], [ %29, %19 ], [ %2, %16 ]
  %31 = fadd double %3, %.sroa.054.0
  %32 = fadd double %4, %.sroa.11.0
  %33 = fneg double %4
  %34 = fmul double %14, %33
  %35 = fmul double %3, %14
  %36 = getelementptr inbounds nuw i8, ptr %10, i64 16
  store double %31, ptr %36, align 16, !tbaa !55
  %.sroa.3.0..sroa_idx = getelementptr inbounds nuw i8, ptr %10, i64 24
  store double %32, ptr %.sroa.3.0..sroa_idx, align 8, !tbaa !55
  %37 = fadd double %34, %.sroa.054.0
  %38 = fadd double %35, %37
  store double %38, ptr %9, align 16, !tbaa !59
  %39 = fadd double %35, %.sroa.11.0
  %40 = fsub double %39, %34
  %41 = getelementptr inbounds nuw i8, ptr %9, i64 8
  store double %40, ptr %41, align 8, !tbaa !60
  %42 = fsub double %.sroa.054.0, %34
  %43 = fadd double %35, %42
  %44 = getelementptr inbounds nuw i8, ptr %9, i64 48
  store double %43, ptr %44, align 16, !tbaa !59
  %45 = fsub double %.sroa.11.0, %35
  %46 = fsub double %45, %34
  %47 = getelementptr inbounds nuw i8, ptr %9, i64 56
  store double %46, ptr %47, align 8, !tbaa !60
  %48 = tail call double @llvm.fmuladd.f64(double %34, double 0x3FEE666666666666, double %.sroa.054.0)
  %49 = fadd double %35, %48
  %50 = fmul double %35, 4.000000e+00
  %51 = fdiv double %50, 3.000000e+00
  %52 = fmul double %34, -4.000000e+00
  %53 = fdiv double %52, 3.000000e+00
  %54 = tail call double @llvm.fmuladd.f64(double %34, double 0xBFEE666666666666, double %.sroa.054.0)
  %55 = fadd double %35, %54
  br i1 %.not, label %61, label %56

56:                                               ; preds = %30
  %57 = fadd double %51, %49
  %58 = fadd double %53, %40
  %59 = fadd double %51, %55
  %60 = fadd double %53, %46
  br label %66

61:                                               ; preds = %30
  %62 = fsub double %49, %51
  %63 = fsub double %40, %53
  %64 = fsub double %55, %51
  %65 = fsub double %46, %53
  br label %66

66:                                               ; preds = %61, %56
  %.sink70 = phi double [ %62, %61 ], [ %57, %56 ]
  %.sink69 = phi double [ %63, %61 ], [ %58, %56 ]
  %.sink68 = phi double [ %64, %61 ], [ %59, %56 ]
  %.sink = phi double [ %65, %61 ], [ %60, %56 ]
  %67 = getelementptr inbounds nuw i8, ptr %9, i64 16
  store double %.sink70, ptr %67, align 16, !tbaa !59
  %68 = getelementptr inbounds nuw i8, ptr %9, i64 24
  store double %.sink69, ptr %68, align 8, !tbaa !60
  %69 = getelementptr inbounds nuw i8, ptr %9, i64 32
  store double %.sink68, ptr %69, align 16, !tbaa !59
  %70 = getelementptr inbounds nuw i8, ptr %9, i64 40
  store double %.sink, ptr %70, align 8, !tbaa !60
  call void @gvrender_polyline(ptr noundef %0, ptr noundef nonnull %10, i64 noundef 2) #12
  %71 = and i32 %7, 64
  %.not66 = icmp eq i32 %71, 0
  br i1 %.not66, label %74, label %72

72:                                               ; preds = %66
  %73 = call { double, double } @Bezier(ptr noundef nonnull %9, double noundef 5.000000e-01, ptr noundef null, ptr noundef nonnull %9) #12
  br label %78

74:                                               ; preds = %66
  %75 = and i32 %7, 128
  %.not67 = icmp eq i32 %75, 0
  br i1 %.not67, label %78, label %76

76:                                               ; preds = %74
  %77 = call { double, double } @Bezier(ptr noundef nonnull %9, double noundef 5.000000e-01, ptr noundef nonnull %9, ptr noundef null) #12
  br label %78

78:                                               ; preds = %74, %76, %72
  call void @gvrender_beziercurve(ptr noundef %0, ptr noundef nonnull %9, i64 noundef 4, i32 noundef 0) #12
  call void @llvm.lifetime.end.p0(i64 32, ptr nonnull %10) #12
  call void @llvm.lifetime.end.p0(i64 64, ptr nonnull %9) #12
  %.fca.0.insert = insertvalue { double, double } poison, double %31, 0
  %.fca.1.insert = insertvalue { double, double } %.fca.0.insert, double %32, 1
  ret { double, double } %.fca.1.insert
}